target datalayout = "e-m:e-p270:32:32-p271:32:32-p272:64:64-i64:64-i128:128-f80:128-n8:16:32:64-S128"
target triple = "x86_64-pc-linux-gnu"

%union.pthread_mutex_t = type { %struct.__pthread_mutex_s }
%struct.__pthread_mutex_s = type { i32, i32, i32, i32, i32, i16, i16, %struct.__pthread_internal_list }
%struct.__pthread_internal_list = type { ptr, ptr }
%struct.timeval = type { i64, i64 }
%struct._logger = type { ptr, ptr, %union.pthread_mutex_t, i64, i64, i64, i16, i16, i16, ptr, ptr }
%struct.__va_list_tag = type { i32, i32, ptr, ptr }
%struct._entry_details = type { i32, i16, ptr, ptr, ptr }
%struct._logentry = type { i32, i8, i16, i64, %struct.timeval, i32, [0 x %union.anon] }
%union.anon = type { i8 }

@logger_gid = internal global i64 0, align 8
@stderr = external global ptr, align 8
@.str = private unnamed_addr constant [44 x i8] c"LOGGER: Failed to bipbuf push a text entry\0A\00", align 1

; Function Attrs: nounwind uwtable
define dso_local i64 @logger_get_gid() #0 {
  %1 = atomicrmw add ptr @logger_gid, i64 1 seq_cst, align 8
  %2 = add i64 %1, 1
  ret i64 %2
}

; Function Attrs: nounwind uwtable
define dso_local i32 @logger_log(ptr noundef %0, i32 noundef %1, ptr noundef %2, ...) #0 {
  %4 = alloca i32, align 4
  %5 = alloca ptr, align 8
  %6 = alloca i32, align 4
  %7 = alloca ptr, align 8
  %8 = alloca ptr, align 8
  %9 = alloca i8, align 1
  %10 = alloca [1 x %struct.__va_list_tag], align 16
  %11 = alloca ptr, align 8
  %12 = alloca ptr, align 8
  %13 = alloca i32, align 4
  %14 = alloca i32, align 4
  store ptr %0, ptr %5, align 8, !tbaa !8
  store i32 %1, ptr %6, align 4, !tbaa !11
  store ptr %2, ptr %7, align 8, !tbaa !28
  call void @llvm.lifetime.start.p0(i64 8, ptr %8) #11
  %15 = load ptr, ptr %5, align 8, !tbaa !8
  %16 = getelementptr inbounds nuw %struct._logger, ptr %15, i32 0, i32 9
  %17 = load ptr, ptr %16, align 8, !tbaa !21
  store ptr %17, ptr %8, align 8, !tbaa !28
  call void @llvm.lifetime.start.p0(i64 1, ptr %9) #11
  store i8 0, ptr %9, align 1, !tbaa !29
  call void @llvm.lifetime.start.p0(i64 24, ptr %10) #11
  call void @llvm.lifetime.start.p0(i64 8, ptr %11) #11
  call void @llvm.lifetime.start.p0(i64 8, ptr %12) #11
  %18 = load ptr, ptr %5, align 8, !tbaa !8
  %19 = getelementptr inbounds nuw %struct._logger, ptr %18, i32 0, i32 10
  %20 = load ptr, ptr %19, align 8, !tbaa !25
  %21 = load i32, ptr %6, align 4, !tbaa !11
  %22 = zext i32 %21 to i64
  %23 = getelementptr inbounds nuw %struct._entry_details, ptr %20, i64 %22
  store ptr %23, ptr %12, align 8, !tbaa !30
  call void @llvm.lifetime.start.p0(i64 4, ptr %13) #11
  %24 = load ptr, ptr %12, align 8, !tbaa !30
  %25 = getelementptr inbounds nuw %struct._entry_details, ptr %24, i32 0, i32 0
  %26 = load i32, ptr %25, align 8, !tbaa !31
  store i32 %26, ptr %13, align 4, !tbaa !11
  %27 = load ptr, ptr %5, align 8, !tbaa !8
  %28 = getelementptr inbounds nuw %struct._logger, ptr %27, i32 0, i32 2
  %29 = call i32 @pthread_mutex_lock(ptr noundef %28) #11
  %30 = load ptr, ptr %8, align 8, !tbaa !28
  %31 = load i32, ptr %13, align 4, !tbaa !11
  %32 = sext i32 %31 to i64
  %33 = add i64 40, %32
  %34 = trunc i64 %33 to i32
  %35 = call ptr @bipbuf_request(ptr noundef %30, i32 noundef %34)
  store ptr %35, ptr %11, align 8, !tbaa !33
  %36 = load ptr, ptr %11, align 8, !tbaa !33
  %37 = icmp eq ptr %36, null
  br i1 %37, label %38, label %46

38:                                               ; preds = %3
  %39 = load ptr, ptr %5, align 8, !tbaa !8
  %40 = getelementptr inbounds nuw %struct._logger, ptr %39, i32 0, i32 4
  %41 = load i64, ptr %40, align 8, !tbaa !35
  %42 = add i64 %41, 1
  store i64 %42, ptr %40, align 8, !tbaa !35
  %43 = load ptr, ptr %5, align 8, !tbaa !8
  %44 = getelementptr inbounds nuw %struct._logger, ptr %43, i32 0, i32 2
  %45 = call i32 @pthread_mutex_unlock(ptr noundef %44) #11
  store i32 1, ptr %4, align 4
  store i32 1, ptr %14, align 4
  br label %104

46:                                               ; preds = %3
  %47 = load i32, ptr %6, align 4, !tbaa !11
  %48 = load ptr, ptr %11, align 8, !tbaa !33
  %49 = getelementptr inbounds nuw %struct._logentry, ptr %48, i32 0, i32 0
  store i32 %47, ptr %49, align 8, !tbaa !11
  %50 = load ptr, ptr %11, align 8, !tbaa !33
  %51 = getelementptr inbounds nuw %struct._logentry, ptr %50, i32 0, i32 1
  store i8 0, ptr %51, align 4, !tbaa !36
  %52 = call i64 @logger_get_gid()
  %53 = load ptr, ptr %11, align 8, !tbaa !33
  %54 = getelementptr inbounds nuw %struct._logentry, ptr %53, i32 0, i32 3
  store i64 %52, ptr %54, align 8, !tbaa !4
  %55 = load ptr, ptr %12, align 8, !tbaa !30
  %56 = getelementptr inbounds nuw %struct._entry_details, ptr %55, i32 0, i32 1
  %57 = load i16, ptr %56, align 4, !tbaa !37
  %58 = load ptr, ptr %11, align 8, !tbaa !33
  %59 = getelementptr inbounds nuw %struct._logentry, ptr %58, i32 0, i32 2
  store i16 %57, ptr %59, align 2, !tbaa !38
  %60 = load ptr, ptr %11, align 8, !tbaa !33
  %61 = getelementptr inbounds nuw %struct._logentry, ptr %60, i32 0, i32 4
  %62 = call i32 @gettimeofday(ptr noundef %61, ptr noundef null) #11
  %63 = getelementptr inbounds [1 x %struct.__va_list_tag], ptr %10, i64 0, i64 0
  call void @llvm.va_start.p0(ptr %63)
  %64 = load ptr, ptr %12, align 8, !tbaa !30
  %65 = getelementptr inbounds nuw %struct._entry_details, ptr %64, i32 0, i32 2
  %66 = load ptr, ptr %65, align 8, !tbaa !39
  %67 = load ptr, ptr %11, align 8, !tbaa !33
  %68 = load ptr, ptr %12, align 8, !tbaa !30
  %69 = load ptr, ptr %7, align 8, !tbaa !28
  %70 = getelementptr inbounds [1 x %struct.__va_list_tag], ptr %10, i64 0, i64 0
  call void %66(ptr noundef %67, ptr noundef %68, ptr noundef %69, ptr noundef %70)
  %71 = getelementptr inbounds [1 x %struct.__va_list_tag], ptr %10, i64 0, i64 0
  call void @llvm.va_end.p0(ptr %71)
  %72 = load ptr, ptr %8, align 8, !tbaa !28
  %73 = load ptr, ptr %11, align 8, !tbaa !33
  %74 = getelementptr inbounds nuw %struct._logentry, ptr %73, i32 0, i32 5
  %75 = load i32, ptr %74, align 8, !tbaa !11
  %76 = sext i32 %75 to i64
  %77 = add i64 40, %76
  %78 = load ptr, ptr %11, align 8, !tbaa !33
  %79 = getelementptr inbounds nuw %struct._logentry, ptr %78, i32 0, i32 1
  %80 = load i8, ptr %79, align 4, !tbaa !36
  %81 = zext i8 %80 to i64
  %82 = add i64 %77, %81
  %83 = trunc i64 %82 to i32
  %84 = call i32 @bipbuf_push(ptr noundef %72, i32 noundef %83)
  %85 = icmp eq i32 %84, 0
  br i1 %85, label %86, label %92

86:                                               ; preds = %46
  %87 = load ptr, ptr @stderr, align 8, !tbaa !13
  %88 = call i32 (ptr, ptr, ...) @fprintf(ptr noundef %87, ptr noundef @.str) #11
  %89 = load ptr, ptr %5, align 8, !tbaa !8
  %90 = getelementptr inbounds nuw %struct._logger, ptr %89, i32 0, i32 2
  %91 = call i32 @pthread_mutex_unlock(ptr noundef %90) #11
  store i32 2, ptr %4, align 4
  store i32 1, ptr %14, align 4
  br label %104

92:                                               ; preds = %46
  %93 = load ptr, ptr %5, align 8, !tbaa !8
  %94 = getelementptr inbounds nuw %struct._logger, ptr %93, i32 0, i32 3
  %95 = load i64, ptr %94, align 8, !tbaa !40
  %96 = add i64 %95, 1
  store i64 %96, ptr %94, align 8, !tbaa !40
  %97 = load ptr, ptr %5, align 8, !tbaa !8
  %98 = getelementptr inbounds nuw %struct._logger, ptr %97, i32 0, i32 2
  %99 = call i32 @pthread_mutex_unlock(ptr noundef %98) #11
  %100 = load i8, ptr %9, align 1, !tbaa !29, !range !41, !noundef !42
  %101 = trunc i8 %100 to i1
  br i1 %101, label %102, label %103

102:                                              ; preds = %92
  store i32 1, ptr %4, align 4
  store i32 1, ptr %14, align 4
  br label %104

103:                                              ; preds = %92
  store i32 0, ptr %4, align 4
  store i32 1, ptr %14, align 4
  br label %104

104:                                              ; preds = %103, %102, %86, %38
  call void @llvm.lifetime.end.p0(i64 4, ptr %13) #11
  call void @llvm.lifetime.end.p0(i64 8, ptr %12) #11
  call void @llvm.lifetime.end.p0(i64 8, ptr %11) #11
  call void @llvm.lifetime.end.p0(i64 24, ptr %10) #11
  call void @llvm.lifetime.end.p0(i64 1, ptr %9) #11
  call void @llvm.lifetime.end.p0(i64 8, ptr %8) #11
  %105 = load i32, ptr %4, align 4
  ret i32 %105
}