; Function Attrs: nounwind uwtable
define dso_local range(i32 0, 3) i32 @logger_log(ptr noundef %0, i32 noundef %1, ptr noundef %2, ...) local_unnamed_addr #1 {
  %4 = alloca [1 x %struct.__va_list_tag], align 16
  %5 = getelementptr inbounds nuw i8, ptr %0, i64 88
  %6 = load ptr, ptr %5, align 8, !tbaa !21
  call void @llvm.lifetime.start.p0(i64 24, ptr nonnull %4) #18
  %7 = getelementptr inbounds nuw i8, ptr %0, i64 96
  %8 = load ptr, ptr %7, align 8, !tbaa !25
  %9 = zext i32 %1 to i64
  %10 = getelementptr inbounds nuw %struct._entry_details, ptr %8, i64 %9
  %11 = load i32, ptr %10, align 8, !tbaa !28
  %12 = getelementptr inbounds nuw i8, ptr %0, i64 16
  %13 = tail call i32 @pthread_mutex_lock(ptr noundef nonnull %12) #18
  %14 = add i32 %11, 40
  %15 = tail call ptr @bipbuf_request(ptr noundef %6, i32 noundef %14) #18
  %16 = icmp eq ptr %15, null
  br i1 %16, label %17, label %22

17:                                               ; preds = %3
  %18 = getelementptr inbounds nuw i8, ptr %0, i64 64
  %19 = load i64, ptr %18, align 8, !tbaa !30
  %20 = add i64 %19, 1
  store i64 %20, ptr %18, align 8, !tbaa !30
  %21 = tail call i32 @pthread_mutex_unlock(ptr noundef nonnull %12) #18
  br label %51

22:                                               ; preds = %3
  store i32 %1, ptr %15, align 8, !tbaa !9
  %23 = getelementptr inbounds nuw i8, ptr %15, i64 4
  store i8 0, ptr %23, align 4, !tbaa !31
  %24 = atomicrmw add ptr @logger_gid, i64 1 seq_cst, align 8
  %25 = add i64 %24, 1
  %26 = getelementptr inbounds nuw i8, ptr %15, i64 8
  store i64 %25, ptr %26, align 8, !tbaa !13
  %27 = getelementptr inbounds nuw i8, ptr %10, i64 4
  %28 = load i16, ptr %27, align 4, !tbaa !32
  %29 = getelementptr inbounds nuw i8, ptr %15, i64 6
  store i16 %28, ptr %29, align 2, !tbaa !33
  %30 = getelementptr inbounds nuw i8, ptr %15, i64 16
  %31 = tail call i32 @gettimeofday(ptr noundef nonnull %30, ptr noundef null) #18
  call void @llvm.va_start.p0(ptr nonnull %4)
  %32 = getelementptr inbounds nuw i8, ptr %10, i64 8
  %33 = load ptr, ptr %32, align 8, !tbaa !34
  call void %33(ptr noundef nonnull %15, ptr noundef nonnull %10, ptr noundef %2, ptr noundef nonnull %4) #18
  call void @llvm.va_end.p0(ptr nonnull %4)
  %34 = getelementptr inbounds nuw i8, ptr %15, i64 32
  %35 = load i32, ptr %34, align 8, !tbaa !9
  %36 = add i32 %35, 40
  %37 = load i8, ptr %23, align 4, !tbaa !31
  %38 = zext i8 %37 to i32
  %39 = add i32 %36, %38
  %40 = call i32 @bipbuf_push(ptr noundef %6, i32 noundef %39) #18
  %41 = icmp eq i32 %40, 0
  br i1 %41, label %42, label %46

42:                                               ; preds = %22
  %43 = load ptr, ptr @stderr, align 8, !tbaa !11
  %44 = call i64 @fwrite(ptr nonnull @.str, i64 43, i64 1, ptr %43) #22
  %45 = call i32 @pthread_mutex_unlock(ptr noundef nonnull %12) #18
  br label %51

46:                                               ; preds = %22
  %47 = getelementptr inbounds nuw i8, ptr %0, i64 56
  %48 = load i64, ptr %47, align 8, !tbaa !35
  %49 = add i64 %48, 1
  store i64 %49, ptr %47, align 8, !tbaa !35
  %50 = call i32 @pthread_mutex_unlock(ptr noundef nonnull %12) #18
  br label %51

51:                                               ; preds = %46, %42, %17
  %.0 = phi i32 [ 1, %17 ], [ 2, %42 ], [ 0, %46 ]
  call void @llvm.lifetime.end.p0(i64 24, ptr nonnull %4) #18
  ret i32 %.0
}